target datalayout = "e-m:e-p270:32:32-p271:32:32-p272:64:64-i64:64-i128:128-f80:128-n8:16:32:64-S128"
target triple = "x86_64-pc-linux-gnu"

%"class.zmq::trie_t" = type { i32, i8, i16, i16, %union.anon }
%union.anon = type { ptr }

; Function Attrs: mustprogress nounwind uwtable
define noundef zeroext i1 @_ZNK3zmq6trie_t5checkEPKhm(ptr noundef nonnull align 8 dereferenceable(24) %0, ptr noundef %1, i64 noundef %2) #0 align 2 {
  %4 = alloca i1, align 1
  %5 = alloca ptr, align 8
  %6 = alloca ptr, align 8
  %7 = alloca i64, align 8
  %8 = alloca ptr, align 8
  %9 = alloca i32, align 4
  %10 = alloca i8, align 1
  store ptr %0, ptr %5, align 8, !tbaa !3
  store ptr %1, ptr %6, align 8, !tbaa !21
  store i64 %2, ptr %7, align 8, !tbaa !23
  %11 = load ptr, ptr %5, align 8
  call void @llvm.lifetime.start.p0(i64 8, ptr %8) #13
  store ptr %11, ptr %8, align 8, !tbaa !3
  br label %12

12:                                               ; preds = %82, %3
  br label %13

13:                                               ; preds = %12
  %14 = load ptr, ptr %8, align 8, !tbaa !3
  %15 = getelementptr inbounds nuw %"class.zmq::trie_t", ptr %14, i32 0, i32 0
  %16 = load i32, ptr %15, align 8, !tbaa !8
  %17 = icmp ne i32 %16, 0
  br i1 %17, label %18, label %19

18:                                               ; preds = %13
  store i1 true, ptr %4, align 1
  store i32 1, ptr %9, align 4
  br label %83

19:                                               ; preds = %13
  %20 = load i64, ptr %7, align 8, !tbaa !23
  %21 = icmp ne i64 %20, 0
  br i1 %21, label %23, label %22

22:                                               ; preds = %19
  store i1 false, ptr %4, align 1
  store i32 1, ptr %9, align 4
  br label %83

23:                                               ; preds = %19
  call void @llvm.lifetime.start.p0(i64 1, ptr %10) #13
  %24 = load ptr, ptr %6, align 8, !tbaa !21
  %25 = load i8, ptr %24, align 1, !tbaa !15
  store i8 %25, ptr %10, align 1, !tbaa !15
  %26 = load i8, ptr %10, align 1, !tbaa !15
  %27 = zext i8 %26 to i32
  %28 = load ptr, ptr %8, align 8, !tbaa !3
  %29 = getelementptr inbounds nuw %"class.zmq::trie_t", ptr %28, i32 0, i32 1
  %30 = load i8, ptr %29, align 4, !tbaa !12
  %31 = zext i8 %30 to i32
  %32 = icmp slt i32 %27, %31
  br i1 %32, label %46, label %33

33:                                               ; preds = %23
  %34 = load i8, ptr %10, align 1, !tbaa !15
  %35 = zext i8 %34 to i32
  %36 = load ptr, ptr %8, align 8, !tbaa !3
  %37 = getelementptr inbounds nuw %"class.zmq::trie_t", ptr %36, i32 0, i32 1
  %38 = load i8, ptr %37, align 4, !tbaa !12
  %39 = zext i8 %38 to i32
  %40 = load ptr, ptr %8, align 8, !tbaa !3
  %41 = getelementptr inbounds nuw %"class.zmq::trie_t", ptr %40, i32 0, i32 2
  %42 = load i16, ptr %41, align 2, !tbaa !13
  %43 = zext i16 %42 to i32
  %44 = add nsw i32 %39, %43
  %45 = icmp sge i32 %35, %44
  br i1 %45, label %46, label %47

46:                                               ; preds = %33, %23
  store i1 false, ptr %4, align 1
  store i32 1, ptr %9, align 4
  br label %80

47:                                               ; preds = %33
  %48 = load ptr, ptr %8, align 8, !tbaa !3
  %49 = getelementptr inbounds nuw %"class.zmq::trie_t", ptr %48, i32 0, i32 2
  %50 = load i16, ptr %49, align 2, !tbaa !13
  %51 = zext i16 %50 to i32
  %52 = icmp eq i32 %51, 1
  br i1 %52, label %53, label %57

53:                                               ; preds = %47
  %54 = load ptr, ptr %8, align 8, !tbaa !3
  %55 = getelementptr inbounds nuw %"class.zmq::trie_t", ptr %54, i32 0, i32 4
  %56 = load ptr, ptr %55, align 8, !tbaa !15
  store ptr %56, ptr %8, align 8, !tbaa !3
  br label %75

57:                                               ; preds = %47
  %58 = load ptr, ptr %8, align 8, !tbaa !3
  %59 = getelementptr inbounds nuw %"class.zmq::trie_t", ptr %58, i32 0, i32 4
  %60 = load ptr, ptr %59, align 8, !tbaa !15
  %61 = load i8, ptr %10, align 1, !tbaa !15
  %62 = zext i8 %61 to i32
  %63 = load ptr, ptr %8, align 8, !tbaa !3
  %64 = getelementptr inbounds nuw %"class.zmq::trie_t", ptr %63, i32 0, i32 1
  %65 = load i8, ptr %64, align 4, !tbaa !12
  %66 = zext i8 %65 to i32
  %67 = sub nsw i32 %62, %66
  %68 = sext i32 %67 to i64
  %69 = getelementptr inbounds ptr, ptr %60, i64 %68
  %70 = load ptr, ptr %69, align 8, !tbaa !3
  store ptr %70, ptr %8, align 8, !tbaa !3
  %71 = load ptr, ptr %8, align 8, !tbaa !3
  %72 = icmp ne ptr %71, null
  br i1 %72, label %74, label %73

73:                                               ; preds = %57
  store i1 false, ptr %4, align 1
  store i32 1, ptr %9, align 4
  br label %80

74:                                               ; preds = %57
  br label %75

75:                                               ; preds = %74, %53
  %76 = load ptr, ptr %6, align 8, !tbaa !21
  %77 = getelementptr inbounds nuw i8, ptr %76, i32 1
  store ptr %77, ptr %6, align 8, !tbaa !21
  %78 = load i64, ptr %7, align 8, !tbaa !23
  %79 = add i64 %78, -1
  store i64 %79, ptr %7, align 8, !tbaa !23
  store i32 0, ptr %9, align 4
  br label %80

80:                                               ; preds = %75, %73, %46
  call void @llvm.lifetime.end.p0(i64 1, ptr %10) #13
  %81 = load i32, ptr %9, align 4
  switch i32 %81, label %83 [
    i32 0, label %82
  ]

82:                                               ; preds = %80
  br label %12, !llvm.loop !37

83:                                               ; preds = %80, %22, %18
  call void @llvm.lifetime.end.p0(i64 8, ptr %8) #13
  %84 = load i1, ptr %4, align 1
  ret i1 %84
}